target datalayout = "e-m:e-p270:32:32-p271:32:32-p272:64:64-i64:64-i128:128-f80:128-n8:16:32:64-S128"
target triple = "x86_64-pc-linux-gnu"

%struct.Vmem = type { ptr, i64, i64 }
%struct.BEValue = type { i8, i32, ptr, ptr, ptr }
%struct.GenContext_ = type { i8, ptr, ptr, ptr, ptr, ptr, ptr, ptr, ptr, ptr, ptr, ptr, ptr, ptr, ptr, ptr, ptr, ptr, ptr, ptr, ptr, ptr, ptr, ptr, ptr, ptr, ptr, ptr, ptr, ptr, ptr, ptr, ptr, %struct.anon.85, i32, i32, %struct.DebugContext, ptr, ptr, ptr, %struct.BEValue, i8, %union.SourceSpan, ptr, ptr, ptr, ptr }
%struct.anon.85 = type { ptr, ptr, ptr }
%struct.DebugContext = type { i16, ptr, ptr, %struct.DebugFile_, ptr, ptr, ptr, ptr }
%struct.DebugFile_ = type { i16, ptr }
%union.SourceSpan = type { i64 }
%struct.Expr_ = type { ptr, %union.SourceSpan, i16, %union.anon.29 }
%union.anon.29 = type { %struct.ExprAnySwitch }
%struct.ExprAnySwitch = type { i8, %union.anon.31 }
%union.anon.31 = type { %struct.anon.32 }
%struct.anon.32 = type { ptr, %union.SourceSpan, ptr }
%struct.Type_ = type { i32, ptr, ptr, ptr, %union.anon.97, ptr, ptr, %union.anon.99 }
%union.anon.97 = type { ptr }
%union.anon.99 = type { %struct.TypeFunction }
%struct.TypeFunction = type { ptr, ptr, ptr }
%struct.ExprSubscript = type { i32, %struct.Range }
%struct.Range = type { i8, i32, i32 }

@expr_arena = external global %struct.Vmem, align 8

; Function Attrs: nounwind uwtable
define internal ptr @exprptr(i32 noundef %0) #0 {
  %2 = alloca i32, align 4
  store i32 %0, ptr %2, align 4
  %3 = load ptr, ptr @expr_arena, align 8
  %4 = load i32, ptr %2, align 4
  %5 = zext i32 %4 to i64
  %6 = getelementptr inbounds %struct.Expr_, ptr %3, i64 %5
  ret ptr %6
}

; Function Attrs: nounwind uwtable
define internal void @llvm_emit_inc_dec_change(ptr noundef %0, ptr noundef %1, ptr noundef %2, ptr noundef %3, ptr noundef %4, i32 noundef %5) #0 {
  %7 = alloca ptr, align 8
  %8 = alloca ptr, align 8
  %9 = alloca ptr, align 8
  %10 = alloca ptr, align 8
  %11 = alloca ptr, align 8
  %12 = alloca ptr, align 8
  %13 = alloca ptr, align 8
  %14 = alloca ptr, align 8
  %15 = alloca i32, align 4
  %16 = alloca %struct.BEValue, align 8
  %17 = alloca ptr, align 8
  store ptr %0, ptr %10, align 8
  store ptr %1, ptr %11, align 8
  store ptr %2, ptr %12, align 8
  store ptr %3, ptr %13, align 8
  store ptr %4, ptr %14, align 8
  store i32 %5, ptr %15, align 4
  br label %18

18:                                               ; preds = %6
  %19 = load ptr, ptr %10, align 8
  %20 = getelementptr inbounds %struct.GenContext_, ptr %19, i32 0, i32 36
  %21 = getelementptr inbounds %struct.DebugContext, ptr %20, i32 0, i32 1
  %22 = load ptr, ptr %21, align 8
  %23 = icmp ne ptr %22, null
  br i1 %23, label %24, label %30

24:                                               ; preds = %18
  %25 = load ptr, ptr %10, align 8
  %26 = load ptr, ptr %14, align 8
  %27 = getelementptr inbounds %struct.Expr_, ptr %26, i32 0, i32 1
  %28 = getelementptr inbounds %union.SourceSpan, ptr %27, i32 0, i32 0
  %29 = load i64, ptr %28, align 8
  call void @llvm_emit_debug_location(ptr noundef %25, i64 %29)
  br label %30

30:                                               ; preds = %24, %18
  br label %31

31:                                               ; preds = %30
  %32 = load ptr, ptr %11, align 8
  call void @llvm.memcpy.p0.p0.i64(ptr align 8 %16, ptr align 8 %32, i64 32, i1 false)
  %33 = load ptr, ptr %10, align 8
  call void @llvm_value_rvalue(ptr noundef %33, ptr noundef %16)
  %34 = load ptr, ptr %13, align 8
  %35 = icmp ne ptr %34, null
  br i1 %35, label %36, label %38

36:                                               ; preds = %31
  %37 = load ptr, ptr %13, align 8
  call void @llvm.memcpy.p0.p0.i64(ptr align 8 %37, ptr align 8 %16, i64 32, i1 false)
  br label %38

38:                                               ; preds = %36, %31
  %39 = load ptr, ptr %10, align 8
  %40 = load ptr, ptr %14, align 8
  %41 = getelementptr inbounds %struct.Expr_, ptr %40, i32 0, i32 1
  %42 = load i32, ptr %15, align 4
  %43 = getelementptr inbounds %union.SourceSpan, ptr %41, i32 0, i32 0
  %44 = load i64, ptr %43, align 8
  %45 = call ptr @llvm_emit_inc_dec_value(ptr noundef %39, i64 %44, ptr noundef %16, i32 noundef %42)
  store ptr %45, ptr %17, align 8
  %46 = load ptr, ptr %10, align 8
  %47 = load ptr, ptr %11, align 8
  %48 = load ptr, ptr %17, align 8
  store ptr %46, ptr %7, align 8
  store ptr %47, ptr %8, align 8
  store ptr %48, ptr %9, align 8
  %49 = load ptr, ptr %7, align 8
  %50 = load ptr, ptr %8, align 8
  %51 = getelementptr inbounds %struct.BEValue, ptr %50, i32 0, i32 3
  %52 = load ptr, ptr %51, align 8
  %53 = load ptr, ptr %9, align 8
  %54 = load ptr, ptr %8, align 8
  %55 = getelementptr inbounds %struct.BEValue, ptr %54, i32 0, i32 1
  %56 = load i32, ptr %55, align 4
  %57 = call ptr @llvm_store_to_ptr_raw_aligned(ptr noundef %49, ptr noundef %52, ptr noundef %53, i32 noundef %56) #8
  %58 = load ptr, ptr %12, align 8
  %59 = icmp ne ptr %58, null
  br i1 %59, label %60, label %66

60:                                               ; preds = %38
  %61 = load ptr, ptr %12, align 8
  %62 = load ptr, ptr %17, align 8
  %63 = load ptr, ptr %11, align 8
  %64 = getelementptr inbounds %struct.BEValue, ptr %63, i32 0, i32 2
  %65 = load ptr, ptr %64, align 8
  call void @llvm_value_set(ptr noundef %61, ptr noundef %62, ptr noundef %65)
  br label %66

66:                                               ; preds = %60, %38
  ret void
}

; Function Attrs: nounwind uwtable
define internal zeroext i1 @expr_is_vector_subscript(ptr noundef %0) #0 {
  %2 = alloca i1, align 1
  %3 = alloca ptr, align 8
  %4 = alloca ptr, align 8
  store ptr %0, ptr %3, align 8
  %5 = load ptr, ptr %3, align 8
  %6 = getelementptr inbounds %struct.Expr_, ptr %5, i32 0, i32 2
  %7 = load i16, ptr %6, align 8
  %8 = and i16 %7, 255
  %9 = zext i16 %8 to i32
  %10 = icmp ne i32 %9, 51
  br i1 %10, label %11, label %12

11:                                               ; preds = %1
  store i1 false, ptr %2, align 1
  br label %25

12:                                               ; preds = %1
  %13 = load ptr, ptr %3, align 8
  %14 = getelementptr inbounds %struct.Expr_, ptr %13, i32 0, i32 3
  %15 = getelementptr inbounds %struct.ExprSubscript, ptr %14, i32 0, i32 0
  %16 = load i32, ptr %15, align 8
  %17 = call ptr @exprptr(i32 noundef %16)
  %18 = getelementptr inbounds %struct.Expr_, ptr %17, i32 0, i32 0
  %19 = load ptr, ptr %18, align 8
  %20 = call ptr @type_lowering(ptr noundef %19)
  store ptr %20, ptr %4, align 8
  %21 = load ptr, ptr %4, align 8
  %22 = getelementptr inbounds %struct.Type_, ptr %21, i32 0, i32 0
  %23 = load i32, ptr %22, align 8
  %24 = icmp eq i32 %23, 37
  store i1 %24, ptr %2, align 1
  br label %25

25:                                               ; preds = %12, %11
  %26 = load i1, ptr %2, align 1
  ret i1 %26
}

; Function Attrs: nounwind uwtable
define internal void @llvm_emit_pre_inc_dec(ptr noundef %0, ptr noundef %1, ptr noundef %2, i32 noundef %3) #0 {
  %5 = alloca ptr, align 8
  %6 = alloca ptr, align 8
  %7 = alloca ptr, align 8
  %8 = alloca i32, align 4
  %9 = alloca %struct.BEValue, align 8
  store ptr %0, ptr %5, align 8
  store ptr %1, ptr %6, align 8
  store ptr %2, ptr %7, align 8
  store i32 %3, ptr %8, align 4
  %10 = load ptr, ptr %7, align 8
  %11 = call zeroext i1 @expr_is_vector_subscript(ptr noundef %10)
  br i1 %11, label %12, label %17

12:                                               ; preds = %4
  %13 = load ptr, ptr %5, align 8
  %14 = load ptr, ptr %6, align 8
  %15 = load ptr, ptr %7, align 8
  %16 = load i32, ptr %8, align 4
  call void @llvm_emit_pre_post_inc_dec_vector(ptr noundef %13, ptr noundef %14, ptr noundef %15, i32 noundef %16, i1 noundef zeroext true)
  br label %37

17:                                               ; preds = %4
  %18 = load ptr, ptr %7, align 8
  %19 = getelementptr inbounds %struct.Expr_, ptr %18, i32 0, i32 2
  %20 = load i16, ptr %19, align 8
  %21 = and i16 %20, 255
  %22 = zext i16 %21 to i32
  %23 = icmp eq i32 %22, 4
  br i1 %23, label %24, label %29

24:                                               ; preds = %17
  %25 = load ptr, ptr %5, align 8
  %26 = load ptr, ptr %6, align 8
  %27 = load ptr, ptr %7, align 8
  %28 = load i32, ptr %8, align 4
  call void @llvm_emit_pre_post_inc_dec_bitstruct(ptr noundef %25, ptr noundef %26, ptr noundef %27, i32 noundef %28, i1 noundef zeroext true)
  br label %37

29:                                               ; preds = %17
  %30 = load ptr, ptr %5, align 8
  %31 = load ptr, ptr %7, align 8
  call void @llvm_emit_expr(ptr noundef %30, ptr noundef %9, ptr noundef %31)
  %32 = load ptr, ptr %5, align 8
  call void @llvm_value_addr(ptr noundef %32, ptr noundef %9)
  %33 = load ptr, ptr %5, align 8
  %34 = load ptr, ptr %6, align 8
  %35 = load ptr, ptr %7, align 8
  %36 = load i32, ptr %8, align 4
  call void @llvm_emit_inc_dec_change(ptr noundef %33, ptr noundef %9, ptr noundef %34, ptr noundef null, ptr noundef %35, i32 noundef %36)
  br label %37

37:                                               ; preds = %29, %24, %12
  ret void
}