; Function Attrs: nounwind uwtable
define internal fastcc void @llvm_emit_pre_inc_dec(ptr noundef %0, ptr noundef %1, ptr noundef %2, i32 noundef %3) unnamed_addr #0 {
  %5 = alloca %struct.BEValue, align 8
  %6 = alloca %struct.BEValue, align 8
  %7 = getelementptr inbounds i8, ptr %2, i64 16
  %8 = load i16, ptr %7, align 8
  %9 = and i16 %8, 255
  %.not.i = icmp eq i16 %9, 51
  br i1 %.not.i, label %expr_is_vector_subscript.exit, label %expr_is_vector_subscript.exit.thread

expr_is_vector_subscript.exit:                    ; preds = %4
  %10 = getelementptr inbounds i8, ptr %2, i64 24
  %11 = load i32, ptr %10, align 8
  %12 = load ptr, ptr @expr_arena, align 8
  %13 = zext i32 %11 to i64
  %14 = getelementptr inbounds %struct.Expr_, ptr %12, i64 %13
  %15 = load ptr, ptr %14, align 8
  %16 = tail call fastcc ptr @type_lowering(ptr noundef %15)
  %17 = load i32, ptr %16, align 8
  %18 = icmp eq i32 %17, 37
  br i1 %18, label %19, label %expr_is_vector_subscript.exit.expr_is_vector_subscript.exit.thread_crit_edge

expr_is_vector_subscript.exit.expr_is_vector_subscript.exit.thread_crit_edge: ; preds = %expr_is_vector_subscript.exit
  %.pre = load i16, ptr %7, align 8
  br label %expr_is_vector_subscript.exit.thread

19:                                               ; preds = %expr_is_vector_subscript.exit
  tail call fastcc void @llvm_emit_pre_post_inc_dec_vector(ptr noundef %0, ptr noundef %1, ptr noundef nonnull %2, i32 noundef %3, i1 noundef zeroext true)
  br label %42

expr_is_vector_subscript.exit.thread:             ; preds = %expr_is_vector_subscript.exit.expr_is_vector_subscript.exit.thread_crit_edge, %4
  %20 = phi i16 [ %.pre, %expr_is_vector_subscript.exit.expr_is_vector_subscript.exit.thread_crit_edge ], [ %8, %4 ]
  %21 = and i16 %20, 255
  %22 = icmp eq i16 %21, 4
  br i1 %22, label %23, label %24

23:                                               ; preds = %expr_is_vector_subscript.exit.thread
  tail call fastcc void @llvm_emit_pre_post_inc_dec_bitstruct(ptr noundef %0, ptr noundef %1, ptr noundef nonnull %2, i32 noundef %3, i1 noundef zeroext true)
  br label %42

24:                                               ; preds = %expr_is_vector_subscript.exit.thread
  call void @llvm_emit_expr(ptr noundef %0, ptr noundef nonnull %6, ptr noundef nonnull %2)
  call void @llvm_value_addr(ptr noundef %0, ptr noundef nonnull %6) #10
  call void @llvm.lifetime.start.p0(i64 32, ptr nonnull %5)
  %25 = getelementptr inbounds i8, ptr %0, i64 304
  %26 = load ptr, ptr %25, align 8
  %.not.i16 = icmp eq ptr %26, null
  br i1 %.not.i16, label %30, label %27

27:                                               ; preds = %24
  %28 = getelementptr inbounds i8, ptr %2, i64 8
  %29 = load i64, ptr %28, align 8
  call void @llvm_emit_debug_location(ptr noundef nonnull %0, i64 %29) #10
  br label %30

30:                                               ; preds = %27, %24
  call void @llvm.memcpy.p0.p0.i64(ptr noundef nonnull align 8 dereferenceable(32) %5, ptr noundef nonnull align 8 dereferenceable(32) %6, i64 32, i1 false)
  call void @llvm_value_rvalue(ptr noundef nonnull %0, ptr noundef nonnull %5) #10
  %31 = getelementptr inbounds i8, ptr %2, i64 8
  %32 = load i64, ptr %31, align 8
  %33 = call fastcc ptr @llvm_emit_inc_dec_value(ptr noundef nonnull %0, i64 %32, ptr noundef nonnull %5, i32 noundef %3)
  %34 = getelementptr inbounds i8, ptr %6, i64 16
  %35 = load ptr, ptr %34, align 8
  %36 = getelementptr inbounds i8, ptr %6, i64 4
  %37 = load i32, ptr %36, align 4
  %38 = call ptr @llvm_store_to_ptr_raw_aligned(ptr noundef nonnull %0, ptr noundef %35, ptr noundef %33, i32 noundef %37) #10
  %.not22.i = icmp eq ptr %1, null
  br i1 %.not22.i, label %llvm_emit_inc_dec_change.exit, label %39

39:                                               ; preds = %30
  %40 = getelementptr inbounds i8, ptr %6, i64 8
  %41 = load ptr, ptr %40, align 8
  call void @llvm_value_set(ptr noundef nonnull %1, ptr noundef %33, ptr noundef %41) #10
  br label %llvm_emit_inc_dec_change.exit

llvm_emit_inc_dec_change.exit:                    ; preds = %30, %39
  call void @llvm.lifetime.end.p0(i64 32, ptr nonnull %5)
  br label %42

42:                                               ; preds = %llvm_emit_inc_dec_change.exit, %23, %19
  ret void
}